target datalayout = "e-m:e-p270:32:32-p271:32:32-p272:64:64-i64:64-i128:128-f80:128-n8:16:32:64-S128"
target triple = "x86_64-pc-linux-gnu"

%struct.Nwk_Man_t_ = type { ptr, ptr, ptr, ptr, ptr, [5 x i32], i32, ptr, ptr, ptr, ptr, ptr, i32, i32, i32, i32, i32 }
%struct.Nwk_Obj_t_ = type { ptr, ptr, ptr, %union.anon, i32, i32, i32, i32, float, float, float, i32, i32, i32, ptr }
%union.anon = type { ptr }
%struct.Vec_Ptr_t_ = type { i32, i32, ptr }

@.str = private unnamed_addr constant [63 x i8] c"Nwk_ManGetAigNodeNum(): Local AIG of node %d is not assigned.\0A\00", align 1

; Function Attrs: inlinehint nounwind uwtable
define internal i32 @Nwk_ObjFaninNum(ptr noundef %0) #2 {
  %2 = alloca ptr, align 8
  store ptr %0, ptr %2, align 8, !tbaa !19
  %3 = load ptr, ptr %2, align 8, !tbaa !19
  %4 = getelementptr inbounds nuw %struct.Nwk_Obj_t_, ptr %3, i32 0, i32 11
  %5 = load i32, ptr %4, align 4, !tbaa !34
  ret i32 %5
}

; Function Attrs: inlinehint nounwind uwtable
define internal i32 @Nwk_ObjIsNode(ptr noundef %0) #2 {
  %2 = alloca ptr, align 8
  store ptr %0, ptr %2, align 8, !tbaa !19
  %3 = load ptr, ptr %2, align 8, !tbaa !19
  %4 = getelementptr inbounds nuw %struct.Nwk_Obj_t_, ptr %3, i32 0, i32 4
  %5 = load i32, ptr %4, align 8
  %6 = and i32 %5, 7
  %7 = icmp eq i32 %6, 3
  %8 = zext i1 %7 to i32
  ret i32 %8
}

; Function Attrs: inlinehint nounwind uwtable
define internal ptr @Vec_PtrEntry(ptr noundef %0, i32 noundef %1) #2 {
  %3 = alloca ptr, align 8
  %4 = alloca i32, align 4
  store ptr %0, ptr %3, align 8, !tbaa !28
  store i32 %1, ptr %4, align 4, !tbaa !17
  %5 = load ptr, ptr %3, align 8, !tbaa !28
  %6 = getelementptr inbounds nuw %struct.Vec_Ptr_t_, ptr %5, i32 0, i32 2
  %7 = load ptr, ptr %6, align 8, !tbaa !31
  %8 = load i32, ptr %4, align 4, !tbaa !17
  %9 = sext i32 %8 to i64
  %10 = getelementptr inbounds ptr, ptr %7, i64 %9
  %11 = load ptr, ptr %10, align 8, !tbaa !32
  ret ptr %11
}

; Function Attrs: inlinehint nounwind uwtable
define internal i32 @Vec_PtrSize(ptr noundef %0) #2 {
  %2 = alloca ptr, align 8
  store ptr %0, ptr %2, align 8, !tbaa !28
  %3 = load ptr, ptr %2, align 8, !tbaa !28
  %4 = getelementptr inbounds nuw %struct.Vec_Ptr_t_, ptr %3, i32 0, i32 1
  %5 = load i32, ptr %4, align 4, !tbaa !29
  ret i32 %5
}

; Function Attrs: nounwind uwtable
define i32 @Nwk_ManGetAigNodeNum(ptr noundef %0) #0 {
  %2 = alloca ptr, align 8
  %3 = alloca ptr, align 8
  %4 = alloca i32, align 4
  %5 = alloca i32, align 4
  store ptr %0, ptr %2, align 8, !tbaa !3
  call void @llvm.lifetime.start.p0(i64 8, ptr %3) #9
  call void @llvm.lifetime.start.p0(i64 4, ptr %4) #9
  call void @llvm.lifetime.start.p0(i64 4, ptr %5) #9
  store i32 0, ptr %5, align 4, !tbaa !17
  store i32 0, ptr %4, align 4, !tbaa !17
  br label %6

6:                                                ; preds = %52, %1
  %7 = load i32, ptr %4, align 4, !tbaa !17
  %8 = load ptr, ptr %2, align 8, !tbaa !3
  %9 = getelementptr inbounds nuw %struct.Nwk_Man_t_, ptr %8, i32 0, i32 4
  %10 = load ptr, ptr %9, align 8, !tbaa !18
  %11 = call i32 @Vec_PtrSize(ptr noundef %10)
  %12 = icmp slt i32 %7, %11
  br i1 %12, label %13, label %19

13:                                               ; preds = %6
  %14 = load ptr, ptr %2, align 8, !tbaa !3
  %15 = getelementptr inbounds nuw %struct.Nwk_Man_t_, ptr %14, i32 0, i32 4
  %16 = load ptr, ptr %15, align 8, !tbaa !18
  %17 = load i32, ptr %4, align 4, !tbaa !17
  %18 = call ptr @Vec_PtrEntry(ptr noundef %16, i32 noundef %17)
  store ptr %18, ptr %3, align 8, !tbaa !19
  br label %19

19:                                               ; preds = %13, %6
  %20 = phi i1 [ false, %6 ], [ true, %13 ]
  br i1 %20, label %21, label %55

21:                                               ; preds = %19
  %22 = load ptr, ptr %3, align 8, !tbaa !19
  %23 = icmp eq ptr %22, null
  br i1 %23, label %28, label %24

24:                                               ; preds = %21
  %25 = load ptr, ptr %3, align 8, !tbaa !19
  %26 = call i32 @Nwk_ObjIsNode(ptr noundef %25)
  %27 = icmp ne i32 %26, 0
  br i1 %27, label %29, label %28

28:                                               ; preds = %24, %21
  br label %51

29:                                               ; preds = %24
  %30 = load ptr, ptr %3, align 8, !tbaa !19
  %31 = getelementptr inbounds nuw %struct.Nwk_Obj_t_, ptr %30, i32 0, i32 1
  %32 = load ptr, ptr %31, align 8, !tbaa !42
  %33 = icmp eq ptr %32, null
  br i1 %33, label %34, label %39

34:                                               ; preds = %29
  %35 = load ptr, ptr %3, align 8, !tbaa !19
  %36 = getelementptr inbounds nuw %struct.Nwk_Obj_t_, ptr %35, i32 0, i32 5
  %37 = load i32, ptr %36, align 4, !tbaa !43
  %38 = call i32 (ptr, ...) @printf(ptr noundef @.str, i32 noundef %37)
  br label %52

39:                                               ; preds = %29
  %40 = load ptr, ptr %3, align 8, !tbaa !19
  %41 = call i32 @Nwk_ObjFaninNum(ptr noundef %40)
  %42 = icmp slt i32 %41, 2
  br i1 %42, label %43, label %44

43:                                               ; preds = %39
  br label %52

44:                                               ; preds = %39
  %45 = load ptr, ptr %3, align 8, !tbaa !19
  %46 = getelementptr inbounds nuw %struct.Nwk_Obj_t_, ptr %45, i32 0, i32 1
  %47 = load ptr, ptr %46, align 8, !tbaa !42
  %48 = call i32 @Hop_DagSize(ptr noundef %47)
  %49 = load i32, ptr %5, align 4, !tbaa !17
  %50 = add nsw i32 %49, %48
  store i32 %50, ptr %5, align 4, !tbaa !17
  br label %51

51:                                               ; preds = %44, %28
  br label %52

52:                                               ; preds = %51, %43, %34
  %53 = load i32, ptr %4, align 4, !tbaa !17
  %54 = add nsw i32 %53, 1
  store i32 %54, ptr %4, align 4, !tbaa !17
  br label %6, !llvm.loop !44

55:                                               ; preds = %19
  %56 = load i32, ptr %5, align 4, !tbaa !17
  call void @llvm.lifetime.end.p0(i64 4, ptr %5) #9
  call void @llvm.lifetime.end.p0(i64 4, ptr %4) #9
  call void @llvm.lifetime.end.p0(i64 8, ptr %3) #9
  ret i32 %56
}