; Function Attrs: nounwind uwtable
define i32 @Nwk_ManGetAigNodeNum(ptr noundef readonly captures(none) %0) local_unnamed_addr #3 {
  %2 = getelementptr inbounds nuw i8, ptr %0, i64 32
  %3 = load ptr, ptr %2, align 8, !tbaa !15
  %4 = getelementptr i8, ptr %3, i64 4
  %.val17 = load i32, ptr %4, align 4, !tbaa !16
  %5 = icmp sgt i32 %.val17, 0
  br i1 %5, label %.lr.ph, label %.critedge

.lr.ph:                                           ; preds = %1, %28
  %indvars.iv = phi i64 [ %indvars.iv.next, %28 ], [ 0, %1 ]
  %6 = phi ptr [ %29, %28 ], [ %3, %1 ]
  %.019 = phi i32 [ %.1, %28 ], [ 0, %1 ]
  %7 = getelementptr i8, ptr %6, i64 8
  %.val14 = load ptr, ptr %7, align 8, !tbaa !18
  %8 = getelementptr inbounds nuw ptr, ptr %.val14, i64 %indvars.iv
  %9 = load ptr, ptr %8, align 8, !tbaa !19
  %10 = icmp eq ptr %9, null
  br i1 %10, label %28, label %11

11:                                               ; preds = %.lr.ph
  %12 = getelementptr i8, ptr %9, i64 32
  %.val15 = load i32, ptr %12, align 8
  %13 = and i32 %.val15, 7
  %.not = icmp eq i32 %13, 3
  br i1 %.not, label %14, label %28

14:                                               ; preds = %11
  %15 = getelementptr inbounds nuw i8, ptr %9, i64 8
  %16 = load ptr, ptr %15, align 8, !tbaa !37
  %17 = icmp eq ptr %16, null
  br i1 %17, label %18, label %22

18:                                               ; preds = %14
  %19 = getelementptr inbounds nuw i8, ptr %9, i64 36
  %20 = load i32, ptr %19, align 4, !tbaa !38
  %21 = tail call i32 (ptr, ...) @printf(ptr noundef nonnull dereferenceable(1) @.str, i32 noundef %20)
  br label %28

22:                                               ; preds = %14
  %23 = getelementptr i8, ptr %9, i64 60
  %.val16 = load i32, ptr %23, align 4, !tbaa !28
  %24 = icmp slt i32 %.val16, 2
  br i1 %24, label %28, label %25

25:                                               ; preds = %22
  %26 = tail call i32 @Hop_DagSize(ptr noundef nonnull %16) #17
  %27 = add nsw i32 %26, %.019
  br label %28

28:                                               ; preds = %25, %11, %.lr.ph, %22, %18
  %.1 = phi i32 [ %.019, %.lr.ph ], [ %.019, %18 ], [ %.019, %22 ], [ %27, %25 ], [ %.019, %11 ]
  %indvars.iv.next = add nuw nsw i64 %indvars.iv, 1
  %29 = load ptr, ptr %2, align 8, !tbaa !15
  %30 = getelementptr i8, ptr %29, i64 4
  %.val = load i32, ptr %30, align 4, !tbaa !16
  %31 = sext i32 %.val to i64
  %32 = icmp slt i64 %indvars.iv.next, %31
  br i1 %32, label %.lr.ph, label %.critedge, !llvm.loop !39

.critedge:                                        ; preds = %28, %1
  %.0.lcssa = phi i32 [ 0, %1 ], [ %.1, %28 ]
  ret i32 %.0.lcssa
}